target datalayout = "e-m:e-p270:32:32-p271:32:32-p272:64:64-i64:64-i128:128-f80:128-n8:16:32:64-S128"
target triple = "x86_64-pc-linux-gnu"

%struct.BusClass = type { %struct.ObjectClass, ptr, ptr, ptr, ptr, ptr, ptr, i32, i32 }
%struct.ObjectClass = type { ptr, ptr, [4 x ptr], [4 x ptr], ptr, ptr }
%struct.VirtioBusClass = type { %struct.BusClass, ptr, ptr, ptr, ptr, ptr, ptr, ptr, ptr, ptr, ptr, ptr, ptr, ptr, ptr, ptr, ptr, ptr, ptr, ptr, ptr, i8, ptr, ptr }

@.str.11 = private unnamed_addr constant [101 x i8] c"/home/dtcxzyw/WorkSpace/Projects/compilers/llvm-opt-benchmark/bench/qemu/qemu/include/hw/qdev-core.h\00", align 1
@.str.17 = private unnamed_addr constant [11 x i8] c"virtio-bus\00", align 1
@.str.19 = private unnamed_addr constant [4 x i8] c"bus\00", align 1
@__func__.BUS_CLASS = private unnamed_addr constant [10 x i8] c"BUS_CLASS\00", align 1
@.str.20 = private unnamed_addr constant [109 x i8] c"/home/dtcxzyw/WorkSpace/Projects/compilers/llvm-opt-benchmark/bench/qemu/qemu/include/hw/virtio/virtio-bus.h\00", align 1
@__func__.VIRTIO_BUS_CLASS = private unnamed_addr constant [17 x i8] c"VIRTIO_BUS_CLASS\00", align 1

; Function Attrs: inlinehint nounwind sspstrong uwtable
define internal ptr @VIRTIO_BUS_CLASS(ptr noundef %0) #4 {
  %2 = alloca ptr, align 8
  store ptr %0, ptr %2, align 8
  %3 = load ptr, ptr %2, align 8
  %4 = call ptr @object_class_dynamic_cast_assert(ptr noundef %3, ptr noundef @.str.17, ptr noundef @.str.20, i32 noundef 36, ptr noundef @__func__.VIRTIO_BUS_CLASS)
  ret ptr %4
}

; Function Attrs: inlinehint nounwind sspstrong uwtable
define internal ptr @BUS_CLASS(ptr noundef %0) #4 {
  %2 = alloca ptr, align 8
  store ptr %0, ptr %2, align 8
  %3 = load ptr, ptr %2, align 8
  %4 = call ptr @object_class_dynamic_cast_assert(ptr noundef %3, ptr noundef @.str.19, ptr noundef @.str.11, i32 noundef 324, ptr noundef @__func__.BUS_CLASS)
  ret ptr %4
}

; Function Attrs: nounwind sspstrong uwtable
define internal void @virtio_pci_bus_class_init(ptr noundef %0, ptr noundef %1) #0 {
  %3 = alloca ptr, align 8
  %4 = alloca ptr, align 8
  %5 = alloca ptr, align 8
  %6 = alloca ptr, align 8
  store ptr %0, ptr %3, align 8
  store ptr %1, ptr %4, align 8
  call void @llvm.lifetime.start.p0(i64 8, ptr %5) #13
  %7 = load ptr, ptr %3, align 8
  %8 = call ptr @BUS_CLASS(ptr noundef %7)
  store ptr %8, ptr %5, align 8
  call void @llvm.lifetime.start.p0(i64 8, ptr %6) #13
  %9 = load ptr, ptr %3, align 8
  %10 = call ptr @VIRTIO_BUS_CLASS(ptr noundef %9)
  store ptr %10, ptr %6, align 8
  %11 = load ptr, ptr %5, align 8
  %12 = getelementptr inbounds nuw %struct.BusClass, ptr %11, i32 0, i32 7
  store i32 1, ptr %12, align 8
  %13 = load ptr, ptr %6, align 8
  %14 = getelementptr inbounds nuw %struct.VirtioBusClass, ptr %13, i32 0, i32 1
  store ptr @virtio_pci_notify, ptr %14, align 8
  %15 = load ptr, ptr %6, align 8
  %16 = getelementptr inbounds nuw %struct.VirtioBusClass, ptr %15, i32 0, i32 2
  store ptr @virtio_pci_save_config, ptr %16, align 8
  %17 = load ptr, ptr %6, align 8
  %18 = getelementptr inbounds nuw %struct.VirtioBusClass, ptr %17, i32 0, i32 5
  store ptr @virtio_pci_load_config, ptr %18, align 8
  %19 = load ptr, ptr %6, align 8
  %20 = getelementptr inbounds nuw %struct.VirtioBusClass, ptr %19, i32 0, i32 3
  store ptr @virtio_pci_save_queue, ptr %20, align 8
  %21 = load ptr, ptr %6, align 8
  %22 = getelementptr inbounds nuw %struct.VirtioBusClass, ptr %21, i32 0, i32 6
  store ptr @virtio_pci_load_queue, ptr %22, align 8
  %23 = load ptr, ptr %6, align 8
  %24 = getelementptr inbounds nuw %struct.VirtioBusClass, ptr %23, i32 0, i32 4
  store ptr @virtio_pci_save_extra_state, ptr %24, align 8
  %25 = load ptr, ptr %6, align 8
  %26 = getelementptr inbounds nuw %struct.VirtioBusClass, ptr %25, i32 0, i32 8
  store ptr @virtio_pci_load_extra_state, ptr %26, align 8
  %27 = load ptr, ptr %6, align 8
  %28 = getelementptr inbounds nuw %struct.VirtioBusClass, ptr %27, i32 0, i32 9
  store ptr @virtio_pci_has_extra_state, ptr %28, align 8
  %29 = load ptr, ptr %6, align 8
  %30 = getelementptr inbounds nuw %struct.VirtioBusClass, ptr %29, i32 0, i32 10
  store ptr @virtio_pci_query_guest_notifiers, ptr %30, align 8
  %31 = load ptr, ptr %6, align 8
  %32 = getelementptr inbounds nuw %struct.VirtioBusClass, ptr %31, i32 0, i32 11
  store ptr @virtio_pci_set_guest_notifiers, ptr %32, align 8
  %33 = load ptr, ptr %6, align 8
  %34 = getelementptr inbounds nuw %struct.VirtioBusClass, ptr %33, i32 0, i32 12
  store ptr @virtio_pci_set_host_notifier_mr, ptr %34, align 8
  %35 = load ptr, ptr %6, align 8
  %36 = getelementptr inbounds nuw %struct.VirtioBusClass, ptr %35, i32 0, i32 13
  store ptr @virtio_pci_vmstate_change, ptr %36, align 8
  %37 = load ptr, ptr %6, align 8
  %38 = getelementptr inbounds nuw %struct.VirtioBusClass, ptr %37, i32 0, i32 14
  store ptr @virtio_pci_pre_plugged, ptr %38, align 8
  %39 = load ptr, ptr %6, align 8
  %40 = getelementptr inbounds nuw %struct.VirtioBusClass, ptr %39, i32 0, i32 15
  store ptr @virtio_pci_device_plugged, ptr %40, align 8
  %41 = load ptr, ptr %6, align 8
  %42 = getelementptr inbounds nuw %struct.VirtioBusClass, ptr %41, i32 0, i32 16
  store ptr @virtio_pci_device_unplugged, ptr %42, align 8
  %43 = load ptr, ptr %6, align 8
  %44 = getelementptr inbounds nuw %struct.VirtioBusClass, ptr %43, i32 0, i32 17
  store ptr @virtio_pci_query_nvectors, ptr %44, align 8
  %45 = load ptr, ptr %6, align 8
  %46 = getelementptr inbounds nuw %struct.VirtioBusClass, ptr %45, i32 0, i32 18
  store ptr @virtio_pci_ioeventfd_enabled, ptr %46, align 8
  %47 = load ptr, ptr %6, align 8
  %48 = getelementptr inbounds nuw %struct.VirtioBusClass, ptr %47, i32 0, i32 19
  store ptr @virtio_pci_ioeventfd_assign, ptr %48, align 8
  %49 = load ptr, ptr %6, align 8
  %50 = getelementptr inbounds nuw %struct.VirtioBusClass, ptr %49, i32 0, i32 22
  store ptr @virtio_pci_get_dma_as, ptr %50, align 8
  %51 = load ptr, ptr %6, align 8
  %52 = getelementptr inbounds nuw %struct.VirtioBusClass, ptr %51, i32 0, i32 23
  store ptr @virtio_pci_iommu_enabled, ptr %52, align 8
  %53 = load ptr, ptr %6, align 8
  %54 = getelementptr inbounds nuw %struct.VirtioBusClass, ptr %53, i32 0, i32 20
  store ptr @virtio_pci_queue_enabled, ptr %54, align 8
  call void @llvm.lifetime.end.p0(i64 8, ptr %6) #13
  call void @llvm.lifetime.end.p0(i64 8, ptr %5) #13
  ret void
}