; Function Attrs: nounwind sspstrong uwtable
define internal void @virtio_pci_bus_class_init(ptr noundef %0, ptr readnone captures(none) %1) #0 {
  %3 = tail call ptr @object_class_dynamic_cast_assert(ptr noundef %0, ptr noundef nonnull @.str.19, ptr noundef nonnull @.str.11, i32 noundef 324, ptr noundef nonnull @__func__.BUS_CLASS) #15
  %4 = tail call ptr @object_class_dynamic_cast_assert(ptr noundef %0, ptr noundef nonnull @__const.virtio_pci_bus_new.virtio_bus_name, ptr noundef nonnull @.str.20, i32 noundef 36, ptr noundef nonnull @__func__.VIRTIO_BUS_CLASS) #15
  %5 = getelementptr inbounds nuw i8, ptr %3, i64 144
  store i32 1, ptr %5, align 8
  %6 = getelementptr inbounds nuw i8, ptr %4, i64 152
  store ptr @virtio_pci_notify, ptr %6, align 8
  %7 = getelementptr inbounds nuw i8, ptr %4, i64 160
  store ptr @virtio_pci_save_config, ptr %7, align 8
  %8 = getelementptr inbounds nuw i8, ptr %4, i64 184
  store ptr @virtio_pci_load_config, ptr %8, align 8
  %9 = getelementptr inbounds nuw i8, ptr %4, i64 168
  store ptr @virtio_pci_save_queue, ptr %9, align 8
  %10 = getelementptr inbounds nuw i8, ptr %4, i64 192
  store ptr @virtio_pci_load_queue, ptr %10, align 8
  %11 = getelementptr inbounds nuw i8, ptr %4, i64 176
  store ptr @virtio_pci_save_extra_state, ptr %11, align 8
  %12 = getelementptr inbounds nuw i8, ptr %4, i64 208
  store ptr @virtio_pci_load_extra_state, ptr %12, align 8
  %13 = getelementptr inbounds nuw i8, ptr %4, i64 216
  store ptr @virtio_pci_has_extra_state, ptr %13, align 8
  %14 = getelementptr inbounds nuw i8, ptr %4, i64 224
  store ptr @virtio_pci_query_guest_notifiers, ptr %14, align 8
  %15 = getelementptr inbounds nuw i8, ptr %4, i64 232
  store ptr @virtio_pci_set_guest_notifiers, ptr %15, align 8
  %16 = getelementptr inbounds nuw i8, ptr %4, i64 240
  store ptr @virtio_pci_set_host_notifier_mr, ptr %16, align 8
  %17 = getelementptr inbounds nuw i8, ptr %4, i64 248
  store ptr @virtio_pci_vmstate_change, ptr %17, align 8
  %18 = getelementptr inbounds nuw i8, ptr %4, i64 256
  store ptr @virtio_pci_pre_plugged, ptr %18, align 8
  %19 = getelementptr inbounds nuw i8, ptr %4, i64 264
  store ptr @virtio_pci_device_plugged, ptr %19, align 8
  %20 = getelementptr inbounds nuw i8, ptr %4, i64 272
  store ptr @virtio_pci_device_unplugged, ptr %20, align 8
  %21 = getelementptr inbounds nuw i8, ptr %4, i64 280
  store ptr @virtio_pci_query_nvectors, ptr %21, align 8
  %22 = getelementptr inbounds nuw i8, ptr %4, i64 288
  store ptr @virtio_pci_ioeventfd_enabled, ptr %22, align 8
  %23 = getelementptr inbounds nuw i8, ptr %4, i64 296
  store ptr @virtio_pci_ioeventfd_assign, ptr %23, align 8
  %24 = getelementptr inbounds nuw i8, ptr %4, i64 320
  store ptr @virtio_pci_get_dma_as, ptr %24, align 8
  %25 = getelementptr inbounds nuw i8, ptr %4, i64 328
  store ptr @virtio_pci_iommu_enabled, ptr %25, align 8
  %26 = getelementptr inbounds nuw i8, ptr %4, i64 304
  store ptr @virtio_pci_queue_enabled, ptr %26, align 8
  ret void
}